target datalayout = "e-m:e-p270:32:32-p271:32:32-p272:64:64-i64:64-i128:128-f80:128-n8:16:32:64-S128"
target triple = "x86_64-pc-linux-gnu"

%struct.Fraig_ManStruct_t_ = type { ptr, ptr, ptr, ptr, ptr, ptr, ptr, ptr, ptr, i32, i32, i32, i32, i32, i32, i32, i32, i32, i32, i32, i32, i64, i32, i32, i32, i32, i32, ptr, ptr, ptr, ptr, ptr, i32, ptr, ptr, ptr, ptr, ptr, ptr, i32, ptr, ptr, ptr, ptr, i32, i32, i32, i32, i32, i32, i32, i32, i32, i32, i32, i32, i32, i32, i32, i32, i32, i32, i32, i64, i64, i64, i64, i64, i64, i64, i64, i64, i64, i64, i64 }
%struct.Fraig_NodeVecStruct_t_ = type { i32, i32, ptr }
%struct.Fraig_NodeStruct_t_ = type { i32, i32, i32, i32, i32, i32, i32, ptr, ptr, ptr, ptr, ptr, ptr, ptr, ptr, i32, i32, ptr, ptr, ptr, ptr, ptr, ptr, ptr }
%struct.Fraig_HashTableStruct_t_ = type { ptr, i32, i32 }

@.str.6 = private unnamed_addr constant [50 x i8] c"Nodes %d and %d have the same D simulation info.\0A\00", align 1

; Function Attrs: nounwind uwtable
define internal void @Fraig_FeedBackCheckTable(ptr noundef %0) #0 {
  %2 = alloca ptr, align 8
  %3 = alloca ptr, align 8
  %4 = alloca ptr, align 8
  %5 = alloca ptr, align 8
  %6 = alloca i32, align 4
  %7 = alloca i32, align 4
  %8 = alloca i32, align 4
  %9 = alloca i32, align 4
  store ptr %0, ptr %2, align 8
  %10 = load ptr, ptr %2, align 8
  %11 = getelementptr inbounds %struct.Fraig_ManStruct_t_, ptr %10, i32 0, i32 7
  %12 = load ptr, ptr %11, align 8
  store ptr %12, ptr %3, align 8
  store i32 0, ptr %9, align 4
  store i32 0, ptr %6, align 4
  br label %13

13:                                               ; preds = %140, %1
  %14 = load i32, ptr %6, align 4
  %15 = load ptr, ptr %3, align 8
  %16 = getelementptr inbounds %struct.Fraig_HashTableStruct_t_, ptr %15, i32 0, i32 1
  %17 = load i32, ptr %16, align 8
  %18 = icmp slt i32 %14, %17
  br i1 %18, label %19, label %143

19:                                               ; preds = %13
  %20 = load ptr, ptr %3, align 8
  %21 = getelementptr inbounds %struct.Fraig_HashTableStruct_t_, ptr %20, i32 0, i32 0
  %22 = load ptr, ptr %21, align 8
  %23 = load i32, ptr %6, align 4
  %24 = sext i32 %23 to i64
  %25 = getelementptr inbounds ptr, ptr %22, i64 %24
  %26 = load ptr, ptr %25, align 8
  store ptr %26, ptr %4, align 8
  br label %27

27:                                               ; preds = %135, %19
  %28 = load ptr, ptr %4, align 8
  %29 = icmp ne ptr %28, null
  br i1 %29, label %30, label %139

30:                                               ; preds = %27
  %31 = load ptr, ptr %2, align 8
  %32 = getelementptr inbounds %struct.Fraig_ManStruct_t_, ptr %31, i32 0, i32 27
  %33 = load ptr, ptr %32, align 8
  %34 = getelementptr inbounds %struct.Fraig_NodeVecStruct_t_, ptr %33, i32 0, i32 1
  store i32 0, ptr %34, align 4
  %35 = load ptr, ptr %4, align 8
  store ptr %35, ptr %5, align 8
  br label %36

36:                                               ; preds = %44, %30
  %37 = load ptr, ptr %5, align 8
  %38 = icmp ne ptr %37, null
  br i1 %38, label %39, label %48

39:                                               ; preds = %36
  %40 = load ptr, ptr %2, align 8
  %41 = getelementptr inbounds %struct.Fraig_ManStruct_t_, ptr %40, i32 0, i32 27
  %42 = load ptr, ptr %41, align 8
  %43 = load ptr, ptr %5, align 8
  call void @Fraig_NodeVecPush(ptr noundef %42, ptr noundef %43)
  br label %44

44:                                               ; preds = %39
  %45 = load ptr, ptr %5, align 8
  %46 = getelementptr inbounds %struct.Fraig_NodeStruct_t_, ptr %45, i32 0, i32 12
  %47 = load ptr, ptr %46, align 8
  store ptr %47, ptr %5, align 8
  br label %36, !llvm.loop !18

48:                                               ; preds = %36
  %49 = load ptr, ptr %2, align 8
  %50 = getelementptr inbounds %struct.Fraig_ManStruct_t_, ptr %49, i32 0, i32 27
  %51 = load ptr, ptr %50, align 8
  %52 = getelementptr inbounds %struct.Fraig_NodeVecStruct_t_, ptr %51, i32 0, i32 1
  %53 = load i32, ptr %52, align 4
  %54 = icmp eq i32 %53, 1
  br i1 %54, label %55, label %56

55:                                               ; preds = %48
  br label %135

56:                                               ; preds = %48
  store i32 0, ptr %7, align 4
  br label %57

57:                                               ; preds = %131, %56
  %58 = load i32, ptr %7, align 4
  %59 = load ptr, ptr %2, align 8
  %60 = getelementptr inbounds %struct.Fraig_ManStruct_t_, ptr %59, i32 0, i32 27
  %61 = load ptr, ptr %60, align 8
  %62 = getelementptr inbounds %struct.Fraig_NodeVecStruct_t_, ptr %61, i32 0, i32 1
  %63 = load i32, ptr %62, align 4
  %64 = icmp slt i32 %58, %63
  br i1 %64, label %65, label %134

65:                                               ; preds = %57
  %66 = load i32, ptr %7, align 4
  %67 = add nsw i32 %66, 1
  store i32 %67, ptr %8, align 4
  br label %68

68:                                               ; preds = %127, %65
  %69 = load i32, ptr %8, align 4
  %70 = load ptr, ptr %2, align 8
  %71 = getelementptr inbounds %struct.Fraig_ManStruct_t_, ptr %70, i32 0, i32 27
  %72 = load ptr, ptr %71, align 8
  %73 = getelementptr inbounds %struct.Fraig_NodeVecStruct_t_, ptr %72, i32 0, i32 1
  %74 = load i32, ptr %73, align 4
  %75 = icmp slt i32 %69, %74
  br i1 %75, label %76, label %130

76:                                               ; preds = %68
  %77 = load ptr, ptr %2, align 8
  %78 = getelementptr inbounds %struct.Fraig_ManStruct_t_, ptr %77, i32 0, i32 27
  %79 = load ptr, ptr %78, align 8
  %80 = getelementptr inbounds %struct.Fraig_NodeVecStruct_t_, ptr %79, i32 0, i32 2
  %81 = load ptr, ptr %80, align 8
  %82 = load i32, ptr %7, align 4
  %83 = sext i32 %82 to i64
  %84 = getelementptr inbounds ptr, ptr %81, i64 %83
  %85 = load ptr, ptr %84, align 8
  %86 = load ptr, ptr %2, align 8
  %87 = getelementptr inbounds %struct.Fraig_ManStruct_t_, ptr %86, i32 0, i32 27
  %88 = load ptr, ptr %87, align 8
  %89 = getelementptr inbounds %struct.Fraig_NodeVecStruct_t_, ptr %88, i32 0, i32 2
  %90 = load ptr, ptr %89, align 8
  %91 = load i32, ptr %8, align 4
  %92 = sext i32 %91 to i64
  %93 = getelementptr inbounds ptr, ptr %90, i64 %92
  %94 = load ptr, ptr %93, align 8
  %95 = load ptr, ptr %2, align 8
  %96 = getelementptr inbounds %struct.Fraig_ManStruct_t_, ptr %95, i32 0, i32 24
  %97 = load i32, ptr %96, align 8
  %98 = call i32 @Fraig_CompareSimInfo(ptr noundef %85, ptr noundef %94, i32 noundef %97, i32 noundef 0)
  %99 = icmp ne i32 %98, 0
  br i1 %99, label %100, label %124

100:                                              ; preds = %76
  %101 = load ptr, ptr %2, align 8
  %102 = getelementptr inbounds %struct.Fraig_ManStruct_t_, ptr %101, i32 0, i32 27
  %103 = load ptr, ptr %102, align 8
  %104 = getelementptr inbounds %struct.Fraig_NodeVecStruct_t_, ptr %103, i32 0, i32 2
  %105 = load ptr, ptr %104, align 8
  %106 = load i32, ptr %7, align 4
  %107 = sext i32 %106 to i64
  %108 = getelementptr inbounds ptr, ptr %105, i64 %107
  %109 = load ptr, ptr %108, align 8
  %110 = getelementptr inbounds %struct.Fraig_NodeStruct_t_, ptr %109, i32 0, i32 0
  %111 = load i32, ptr %110, align 8
  %112 = load ptr, ptr %2, align 8
  %113 = getelementptr inbounds %struct.Fraig_ManStruct_t_, ptr %112, i32 0, i32 27
  %114 = load ptr, ptr %113, align 8
  %115 = getelementptr inbounds %struct.Fraig_NodeVecStruct_t_, ptr %114, i32 0, i32 2
  %116 = load ptr, ptr %115, align 8
  %117 = load i32, ptr %8, align 4
  %118 = sext i32 %117 to i64
  %119 = getelementptr inbounds ptr, ptr %116, i64 %118
  %120 = load ptr, ptr %119, align 8
  %121 = getelementptr inbounds %struct.Fraig_NodeStruct_t_, ptr %120, i32 0, i32 0
  %122 = load i32, ptr %121, align 8
  %123 = call i32 (ptr, ...) @printf(ptr noundef @.str.6, i32 noundef %111, i32 noundef %122)
  br label %124

124:                                              ; preds = %100, %76
  %125 = load i32, ptr %9, align 4
  %126 = add nsw i32 %125, 1
  store i32 %126, ptr %9, align 4
  br label %127

127:                                              ; preds = %124
  %128 = load i32, ptr %8, align 4
  %129 = add nsw i32 %128, 1
  store i32 %129, ptr %8, align 4
  br label %68, !llvm.loop !19

130:                                              ; preds = %68
  br label %131

131:                                              ; preds = %130
  %132 = load i32, ptr %7, align 4
  %133 = add nsw i32 %132, 1
  store i32 %133, ptr %7, align 4
  br label %57, !llvm.loop !20

134:                                              ; preds = %57
  br label %135

135:                                              ; preds = %134, %55
  %136 = load ptr, ptr %4, align 8
  %137 = getelementptr inbounds %struct.Fraig_NodeStruct_t_, ptr %136, i32 0, i32 11
  %138 = load ptr, ptr %137, align 8
  store ptr %138, ptr %4, align 8
  br label %27, !llvm.loop !21

139:                                              ; preds = %27
  br label %140

140:                                              ; preds = %139
  %141 = load i32, ptr %6, align 4
  %142 = add nsw i32 %141, 1
  store i32 %142, ptr %6, align 4
  br label %13, !llvm.loop !22

143:                                              ; preds = %13
  ret void
}