; Function Attrs: nounwind uwtable
define internal fastcc void @Fraig_FeedBackCheckTable(ptr noundef readonly captures(none) %0) unnamed_addr #0 {
  %2 = getelementptr inbounds nuw i8, ptr %0, i64 56
  %3 = load ptr, ptr %2, align 8
  %4 = getelementptr inbounds nuw i8, ptr %3, i64 8
  %5 = load i32, ptr %4, align 8
  %6 = icmp sgt i32 %5, 0
  br i1 %6, label %.lr.ph55, label %._crit_edge56

.lr.ph55:                                         ; preds = %1
  %7 = getelementptr inbounds nuw i8, ptr %0, i64 152
  %8 = getelementptr inbounds nuw i8, ptr %0, i64 136
  br label %9

9:                                                ; preds = %.lr.ph55, %._crit_edge
  %10 = phi i32 [ %5, %.lr.ph55 ], [ %56, %._crit_edge ]
  %indvars.iv63 = phi i64 [ 0, %.lr.ph55 ], [ %indvars.iv.next64, %._crit_edge ]
  %11 = load ptr, ptr %3, align 8
  %12 = getelementptr inbounds nuw ptr, ptr %11, i64 %indvars.iv63
  %.03546 = load ptr, ptr %12, align 8
  %.not47 = icmp eq ptr %.03546, null
  br i1 %.not47, label %._crit_edge, label %.lr.ph50.preheader

.lr.ph50.preheader:                               ; preds = %9
  %.pre = load ptr, ptr %7, align 8
  br label %.lr.ph50

.lr.ph50:                                         ; preds = %.lr.ph50.preheader, %.loopexit38
  %13 = phi ptr [ %54, %.loopexit38 ], [ %.pre, %.lr.ph50.preheader ]
  %.03549 = phi ptr [ %.035, %.loopexit38 ], [ %.03546, %.lr.ph50.preheader ]
  %14 = getelementptr inbounds nuw i8, ptr %13, i64 4
  store i32 0, ptr %14, align 4
  br label %15

15:                                               ; preds = %.lr.ph50, %15
  %.03439 = phi ptr [ %.03549, %.lr.ph50 ], [ %18, %15 ]
  %16 = load ptr, ptr %7, align 8
  tail call void @Fraig_NodeVecPush(ptr noundef %16, ptr noundef nonnull %.03439) #12
  %17 = getelementptr inbounds nuw i8, ptr %.03439, i64 72
  %18 = load ptr, ptr %17, align 8
  %.not36 = icmp eq ptr %18, null
  br i1 %.not36, label %19, label %15, !llvm.loop !42

19:                                               ; preds = %15
  %20 = load ptr, ptr %7, align 8
  %21 = getelementptr inbounds nuw i8, ptr %20, i64 4
  %22 = load i32, ptr %21, align 4
  %or.cond = icmp sgt i32 %22, 1
  br i1 %or.cond, label %.lr.ph44, label %.loopexit38

.loopexit.loopexit:                               ; preds = %48
  %.pre70 = sext i32 %51 to i64
  br label %.loopexit

.loopexit:                                        ; preds = %.lr.ph44, %.loopexit.loopexit
  %.pre-phi = phi i64 [ %.pre70, %.loopexit.loopexit ], [ %26, %.lr.ph44 ]
  %.pre6669 = phi i32 [ %51, %.loopexit.loopexit ], [ %.pre66, %.lr.ph44 ]
  %23 = phi ptr [ %49, %.loopexit.loopexit ], [ %25, %.lr.ph44 ]
  %24 = icmp slt i64 %indvars.iv.next61, %.pre-phi
  %indvars.iv.next = add nuw nsw i64 %indvars.iv, 1
  br i1 %24, label %.lr.ph44, label %.loopexit38, !llvm.loop !43

.lr.ph44:                                         ; preds = %19, %.loopexit
  %.pre66 = phi i32 [ %.pre6669, %.loopexit ], [ %22, %19 ]
  %25 = phi ptr [ %23, %.loopexit ], [ %20, %19 ]
  %indvars.iv60 = phi i64 [ %indvars.iv.next61, %.loopexit ], [ 0, %19 ]
  %indvars.iv = phi i64 [ %indvars.iv.next, %.loopexit ], [ 1, %19 ]
  %indvars.iv.next61 = add nuw nsw i64 %indvars.iv60, 1
  %26 = sext i32 %.pre66 to i64
  %27 = icmp slt i64 %indvars.iv.next61, %26
  br i1 %27, label %.lr.ph, label %.loopexit

.lr.ph:                                           ; preds = %.lr.ph44, %48
  %indvars.iv57 = phi i64 [ %indvars.iv.next58, %48 ], [ %indvars.iv, %.lr.ph44 ]
  %28 = phi ptr [ %49, %48 ], [ %25, %.lr.ph44 ]
  %29 = getelementptr inbounds nuw i8, ptr %28, i64 8
  %30 = load ptr, ptr %29, align 8
  %31 = getelementptr inbounds nuw ptr, ptr %30, i64 %indvars.iv60
  %32 = load ptr, ptr %31, align 8
  %33 = getelementptr inbounds nuw ptr, ptr %30, i64 %indvars.iv57
  %34 = load ptr, ptr %33, align 8
  %35 = load i32, ptr %8, align 8
  %36 = tail call i32 @Fraig_CompareSimInfo(ptr noundef %32, ptr noundef %34, i32 noundef %35, i32 noundef 0) #12
  %.not37 = icmp eq i32 %36, 0
  br i1 %.not37, label %48, label %37

37:                                               ; preds = %.lr.ph
  %38 = load ptr, ptr %7, align 8
  %39 = getelementptr inbounds nuw i8, ptr %38, i64 8
  %40 = load ptr, ptr %39, align 8
  %41 = getelementptr inbounds nuw ptr, ptr %40, i64 %indvars.iv60
  %42 = load ptr, ptr %41, align 8
  %43 = load i32, ptr %42, align 8
  %44 = getelementptr inbounds nuw ptr, ptr %40, i64 %indvars.iv57
  %45 = load ptr, ptr %44, align 8
  %46 = load i32, ptr %45, align 8
  %47 = tail call i32 (ptr, ...) @printf(ptr noundef nonnull dereferenceable(1) @.str.6, i32 noundef %43, i32 noundef %46)
  br label %48

48:                                               ; preds = %37, %.lr.ph
  %indvars.iv.next58 = add nuw nsw i64 %indvars.iv57, 1
  %49 = load ptr, ptr %7, align 8
  %50 = getelementptr inbounds nuw i8, ptr %49, i64 4
  %51 = load i32, ptr %50, align 4
  %52 = trunc nuw i64 %indvars.iv.next58 to i32
  %53 = icmp sgt i32 %51, %52
  br i1 %53, label %.lr.ph, label %.loopexit.loopexit, !llvm.loop !44

.loopexit38:                                      ; preds = %.loopexit, %19
  %54 = phi ptr [ %20, %19 ], [ %23, %.loopexit ]
  %55 = getelementptr inbounds nuw i8, ptr %.03549, i64 64
  %.035 = load ptr, ptr %55, align 8
  %.not = icmp eq ptr %.035, null
  br i1 %.not, label %._crit_edge.loopexit, label %.lr.ph50, !llvm.loop !45

._crit_edge.loopexit:                             ; preds = %.loopexit38
  %.pre67 = load i32, ptr %4, align 8
  br label %._crit_edge

._crit_edge:                                      ; preds = %._crit_edge.loopexit, %9
  %56 = phi i32 [ %10, %9 ], [ %.pre67, %._crit_edge.loopexit ]
  %indvars.iv.next64 = add nuw nsw i64 %indvars.iv63, 1
  %57 = sext i32 %56 to i64
  %58 = icmp slt i64 %indvars.iv.next64, %57
  br i1 %58, label %9, label %._crit_edge56, !llvm.loop !46

._crit_edge56:                                    ; preds = %._crit_edge, %1
  ret void
}